; Function Attrs: mustprogress nounwind uwtable
define dso_local void @_ZN5clang13CodeGenActionC2EjPN4llvm11LLVMContextE(ptr noundef nonnull align 8 dereferenceable(224) %0, i32 noundef %1, ptr noundef %2) unnamed_addr #0 align 2 {
  tail call void @_ZN5clang14FrontendActionC2Ev(ptr noundef nonnull align 8 dereferenceable(104) %0) #23
  store ptr getelementptr inbounds inrange(-16, 136) (i8, ptr @_ZTVN5clang13CodeGenActionE, i64 16), ptr %0, align 8
  %4 = getelementptr inbounds nuw i8, ptr %0, i64 104
  store i32 %1, ptr %4, align 8
  %5 = getelementptr inbounds nuw i8, ptr %0, i64 112
  store ptr null, ptr %5, align 8
  %6 = getelementptr inbounds nuw i8, ptr %0, i64 120
  %7 = getelementptr inbounds i8, ptr %0, i64 136
  tail call void @_ZN4llvm15SmallVectorBaseIjEC2EPvm(ptr noundef nonnull align 8 dereferenceable(16) %6, ptr noundef nonnull %7, i64 noundef 4) #23
  %.not = icmp eq ptr %2, null
  br i1 %.not, label %8, label %10

8:                                                ; preds = %3
  %9 = tail call noalias noundef nonnull dereferenceable(8) ptr @_Znwm(i64 noundef 8) #25
  tail call void @_ZN4llvm11LLVMContextC1Ev(ptr noundef nonnull align 8 dereferenceable(8) %9) #23
  br label %10

10:                                               ; preds = %3, %8
  %11 = phi ptr [ %9, %8 ], [ %2, %3 ]
  %12 = getelementptr inbounds nuw i8, ptr %0, i64 200
  store ptr %11, ptr %12, align 8
  %13 = getelementptr inbounds nuw i8, ptr %0, i64 208
  %14 = zext i1 %.not to i8
  store i8 %14, ptr %13, align 8
  %15 = getelementptr inbounds nuw i8, ptr %0, i64 216
  store ptr null, ptr %15, align 8
  ret void
}